target datalayout = "e-m:e-p270:32:32-p271:32:32-p272:64:64-i64:64-i128:128-f80:128-n8:16:32:64-S128"
target triple = "x86_64-pc-linux-gnu"

%struct.diffgrep_cb = type { ptr, i32 }
%struct.regmatch_t = type { i32, i32 }

@.str = private unnamed_addr constant [19 x i8] c"diffcore-pickaxe.c\00", align 1
@.str.5 = private unnamed_addr constant [64 x i8] c"Already matched in diffgrep_consume! Broken xdiff_emit_line_fn?\00", align 1

; Function Attrs: inlinehint nounwind uwtable
define internal i32 @regexec_buf(ptr noundef %0, ptr noundef %1, i64 noundef %2, i64 noundef %3, ptr noundef %4, i32 noundef %5) #7 {
  %7 = alloca ptr, align 8
  %8 = alloca ptr, align 8
  %9 = alloca i64, align 8
  %10 = alloca i64, align 8
  %11 = alloca ptr, align 8
  %12 = alloca i32, align 4
  store ptr %0, ptr %7, align 8, !tbaa !27
  store ptr %1, ptr %8, align 8, !tbaa !24
  store i64 %2, ptr %9, align 8, !tbaa !60
  store i64 %3, ptr %10, align 8, !tbaa !60
  store ptr %4, ptr %11, align 8, !tbaa !32
  store i32 %5, ptr %12, align 4, !tbaa !26
  %13 = load ptr, ptr %11, align 8, !tbaa !32
  %14 = getelementptr inbounds %struct.regmatch_t, ptr %13, i64 0
  %15 = getelementptr inbounds nuw %struct.regmatch_t, ptr %14, i32 0, i32 0
  store i32 0, ptr %15, align 4, !tbaa !63
  %16 = load i64, ptr %9, align 8, !tbaa !60
  %17 = trunc i64 %16 to i32
  %18 = load ptr, ptr %11, align 8, !tbaa !32
  %19 = getelementptr inbounds %struct.regmatch_t, ptr %18, i64 0
  %20 = getelementptr inbounds nuw %struct.regmatch_t, ptr %19, i32 0, i32 1
  store i32 %17, ptr %20, align 4, !tbaa !65
  %21 = load ptr, ptr %7, align 8, !tbaa !27
  %22 = load ptr, ptr %8, align 8, !tbaa !24
  %23 = load i64, ptr %10, align 8, !tbaa !60
  %24 = load ptr, ptr %11, align 8, !tbaa !32
  %25 = load i32, ptr %12, align 4, !tbaa !26
  %26 = or i32 %25, 4
  %27 = call i32 @regexec(ptr noundef %21, ptr noundef %22, i64 noundef %23, ptr noundef %24, i32 noundef %26)
  ret i32 %27
}

; Function Attrs: nounwind uwtable
define internal i32 @diffgrep_consume(ptr noundef %0, ptr noundef %1, i64 noundef %2) #0 {
  %4 = alloca i32, align 4
  %5 = alloca ptr, align 8
  %6 = alloca ptr, align 8
  %7 = alloca i64, align 8
  %8 = alloca ptr, align 8
  %9 = alloca %struct.regmatch_t, align 4
  %10 = alloca i32, align 4
  store ptr %0, ptr %5, align 8, !tbaa !32
  store ptr %1, ptr %6, align 8, !tbaa !24
  store i64 %2, ptr %7, align 8, !tbaa !60
  call void @llvm.lifetime.start.p0(i64 8, ptr %8) #9
  %11 = load ptr, ptr %5, align 8, !tbaa !32
  store ptr %11, ptr %8, align 8, !tbaa !61
  call void @llvm.lifetime.start.p0(i64 8, ptr %9) #9
  %12 = load ptr, ptr %6, align 8, !tbaa !24
  %13 = getelementptr inbounds i8, ptr %12, i64 0
  %14 = load i8, ptr %13, align 1, !tbaa !31
  %15 = sext i8 %14 to i32
  %16 = icmp ne i32 %15, 43
  br i1 %16, label %17, label %24

17:                                               ; preds = %3
  %18 = load ptr, ptr %6, align 8, !tbaa !24
  %19 = getelementptr inbounds i8, ptr %18, i64 0
  %20 = load i8, ptr %19, align 1, !tbaa !31
  %21 = sext i8 %20 to i32
  %22 = icmp ne i32 %21, 45
  br i1 %22, label %23, label %24

23:                                               ; preds = %17
  store i32 0, ptr %4, align 4
  store i32 1, ptr %10, align 4
  br label %44

24:                                               ; preds = %17, %3
  %25 = load ptr, ptr %8, align 8, !tbaa !61
  %26 = getelementptr inbounds nuw %struct.diffgrep_cb, ptr %25, i32 0, i32 1
  %27 = load i32, ptr %26, align 8, !tbaa !39
  %28 = icmp ne i32 %27, 0
  br i1 %28, label %29, label %30

29:                                               ; preds = %24
  call void (ptr, i32, ptr, ...) @BUG_fl(ptr noundef @.str, i32 noundef 34, ptr noundef @.str.5) #10
  unreachable

30:                                               ; preds = %24
  %31 = load ptr, ptr %8, align 8, !tbaa !61
  %32 = getelementptr inbounds nuw %struct.diffgrep_cb, ptr %31, i32 0, i32 0
  %33 = load ptr, ptr %32, align 8, !tbaa !37
  %34 = load ptr, ptr %6, align 8, !tbaa !24
  %35 = getelementptr inbounds i8, ptr %34, i64 1
  %36 = load i64, ptr %7, align 8, !tbaa !60
  %37 = sub i64 %36, 1
  %38 = call i32 @regexec_buf(ptr noundef %33, ptr noundef %35, i64 noundef %37, i64 noundef 1, ptr noundef %9, i32 noundef 0)
  %39 = icmp ne i32 %38, 0
  br i1 %39, label %43, label %40

40:                                               ; preds = %30
  %41 = load ptr, ptr %8, align 8, !tbaa !61
  %42 = getelementptr inbounds nuw %struct.diffgrep_cb, ptr %41, i32 0, i32 1
  store i32 1, ptr %42, align 8, !tbaa !39
  store i32 1, ptr %4, align 4
  store i32 1, ptr %10, align 4
  br label %44

43:                                               ; preds = %30
  store i32 0, ptr %4, align 4
  store i32 1, ptr %10, align 4
  br label %44

44:                                               ; preds = %43, %40, %23
  call void @llvm.lifetime.end.p0(i64 8, ptr %9) #9
  call void @llvm.lifetime.end.p0(i64 8, ptr %8) #9
  %45 = load i32, ptr %4, align 4
  ret i32 %45
}