; Function Attrs: nounwind uwtable
define internal range(i32 0, 2) i32 @diffgrep_consume(ptr noundef captures(none) %0, ptr noundef %1, i64 noundef %2) #0 {
  %4 = alloca %struct.regmatch_t, align 4
  call void @llvm.lifetime.start.p0(i64 8, ptr nonnull %4) #8
  %5 = load i8, ptr %1, align 1, !tbaa !23
  switch i8 %5, label %18 [
    i8 43, label %6
    i8 45, label %6
  ]

6:                                                ; preds = %3, %3
  %7 = getelementptr inbounds nuw i8, ptr %0, i64 8
  %8 = load i32, ptr %7, align 8, !tbaa !42
  %.not10 = icmp eq i32 %8, 0
  br i1 %.not10, label %10, label %9

9:                                                ; preds = %6
  tail call void (ptr, i32, ptr, ...) @BUG_fl(ptr noundef nonnull @.str, i32 noundef 34, ptr noundef nonnull @.str.5) #9
  unreachable

10:                                               ; preds = %6
  %11 = load ptr, ptr %0, align 8, !tbaa !39
  %12 = getelementptr inbounds nuw i8, ptr %1, i64 1
  store i32 0, ptr %4, align 4, !tbaa !53
  %13 = trunc i64 %2 to i32
  %14 = add i32 %13, -1
  %15 = getelementptr inbounds nuw i8, ptr %4, i64 4
  store i32 %14, ptr %15, align 4, !tbaa !55
  %16 = call i32 @regexec(ptr noundef %11, ptr noundef nonnull %12, i64 noundef 1, ptr noundef nonnull %4, i32 noundef 4) #8
  %.not11 = icmp eq i32 %16, 0
  br i1 %.not11, label %17, label %18

17:                                               ; preds = %10
  store i32 1, ptr %7, align 8, !tbaa !42
  br label %18

18:                                               ; preds = %10, %3, %17
  %.0 = phi i32 [ 1, %17 ], [ 0, %3 ], [ 0, %10 ]
  call void @llvm.lifetime.end.p0(i64 8, ptr nonnull %4) #8
  ret i32 %.0
}